; Function Attrs: mustprogress nofree norecurse nosync nounwind willreturn memory(argmem: write) uwtable
define void @_ZN3net16TransmissionInfoC2ENS_15EncryptionLevelENS_22QuicPacketNumberLengthENS_16TransmissionTypeENS_8QuicTimeEtbi(ptr noundef nonnull align 8 dereferenceable(80) initializes((0, 28), (32, 46), (48, 56)) %0, i8 noundef signext %1, i8 noundef signext %2, i8 noundef signext %3, i64 %4, i16 noundef zeroext %5, i1 noundef zeroext %6, i32 noundef %7) unnamed_addr #2 align 2 {
  %9 = zext i1 %6 to i8
  tail call void @llvm.memset.p0.i64(ptr noundef nonnull align 8 dereferenceable(24) %0, i8 0, i64 24, i1 false)
  %10 = getelementptr inbounds nuw i8, ptr %0, i64 24
  store i8 %1, ptr %10, align 8, !tbaa !276
  %11 = getelementptr inbounds nuw i8, ptr %0, i64 25
  store i8 %2, ptr %11, align 1, !tbaa !272
  %12 = getelementptr inbounds nuw i8, ptr %0, i64 26
  store i16 %5, ptr %12, align 2, !tbaa !274
  %13 = getelementptr inbounds nuw i8, ptr %0, i64 32
  store i64 %4, ptr %13, align 8, !tbaa !76
  %14 = getelementptr inbounds nuw i8, ptr %0, i64 40
  store i8 %3, ptr %14, align 8, !tbaa !277
  %15 = getelementptr inbounds nuw i8, ptr %0, i64 41
  store i8 0, ptr %15, align 1, !tbaa !278
  %16 = getelementptr inbounds nuw i8, ptr %0, i64 42
  store i8 0, ptr %16, align 2, !tbaa !279
  %17 = getelementptr inbounds nuw i8, ptr %0, i64 43
  store i8 %9, ptr %17, align 1, !tbaa !280
  %18 = getelementptr inbounds nuw i8, ptr %0, i64 44
  %19 = trunc i32 %7 to i16
  store i16 %19, ptr %18, align 4, !tbaa !281
  %20 = getelementptr inbounds nuw i8, ptr %0, i64 48
  store i64 0, ptr %20, align 8, !tbaa !275
  %21 = getelementptr inbounds nuw i8, ptr %0, i64 56
  %22 = getelementptr inbounds nuw i8, ptr %0, i64 64
  store ptr %21, ptr %22, align 8, !tbaa !259
  store ptr %21, ptr %21, align 8, !tbaa !260
  %23 = getelementptr inbounds nuw i8, ptr %0, i64 72
  store i64 0, ptr %23, align 8, !tbaa !261
  ret void
}